target datalayout = "e-m:e-p270:32:32-p271:32:32-p272:64:64-i64:64-i128:128-f80:128-n8:16:32:64-S128"
target triple = "x86_64-pc-linux-gnu"

%struct.DER_ENC = type { ptr, i32, ptr }

; Function Attrs: nounwind uwtable
define internal i32 @der_cmp(ptr noundef %0, ptr noundef %1) #0 {
  %3 = alloca i32, align 4
  %4 = alloca ptr, align 8
  %5 = alloca ptr, align 8
  %6 = alloca ptr, align 8
  %7 = alloca ptr, align 8
  %8 = alloca i32, align 4
  %9 = alloca i32, align 4
  %10 = alloca i32, align 4
  store ptr %0, ptr %4, align 8, !tbaa !28
  store ptr %1, ptr %5, align 8, !tbaa !28
  call void @llvm.lifetime.start.p0(i64 8, ptr %6) #7
  %11 = load ptr, ptr %4, align 8, !tbaa !28
  store ptr %11, ptr %6, align 8, !tbaa !28
  call void @llvm.lifetime.start.p0(i64 8, ptr %7) #7
  %12 = load ptr, ptr %5, align 8, !tbaa !28
  store ptr %12, ptr %7, align 8, !tbaa !28
  call void @llvm.lifetime.start.p0(i64 4, ptr %8) #7
  call void @llvm.lifetime.start.p0(i64 4, ptr %9) #7
  %13 = load ptr, ptr %6, align 8, !tbaa !28
  %14 = getelementptr inbounds nuw %struct.DER_ENC, ptr %13, i32 0, i32 1
  %15 = load i32, ptr %14, align 8, !tbaa !81
  %16 = load ptr, ptr %7, align 8, !tbaa !28
  %17 = getelementptr inbounds nuw %struct.DER_ENC, ptr %16, i32 0, i32 1
  %18 = load i32, ptr %17, align 8, !tbaa !81
  %19 = icmp slt i32 %15, %18
  br i1 %19, label %20, label %24

20:                                               ; preds = %2
  %21 = load ptr, ptr %6, align 8, !tbaa !28
  %22 = getelementptr inbounds nuw %struct.DER_ENC, ptr %21, i32 0, i32 1
  %23 = load i32, ptr %22, align 8, !tbaa !81
  br label %28

24:                                               ; preds = %2
  %25 = load ptr, ptr %7, align 8, !tbaa !28
  %26 = getelementptr inbounds nuw %struct.DER_ENC, ptr %25, i32 0, i32 1
  %27 = load i32, ptr %26, align 8, !tbaa !81
  br label %28

28:                                               ; preds = %24, %20
  %29 = phi i32 [ %23, %20 ], [ %27, %24 ]
  store i32 %29, ptr %8, align 4, !tbaa !15
  %30 = load ptr, ptr %6, align 8, !tbaa !28
  %31 = getelementptr inbounds nuw %struct.DER_ENC, ptr %30, i32 0, i32 0
  %32 = load ptr, ptr %31, align 8, !tbaa !79
  %33 = load ptr, ptr %7, align 8, !tbaa !28
  %34 = getelementptr inbounds nuw %struct.DER_ENC, ptr %33, i32 0, i32 0
  %35 = load ptr, ptr %34, align 8, !tbaa !79
  %36 = load i32, ptr %8, align 4, !tbaa !15
  %37 = sext i32 %36 to i64
  %38 = call i32 @memcmp(ptr noundef %32, ptr noundef %35, i64 noundef %37) #9
  store i32 %38, ptr %9, align 4, !tbaa !15
  %39 = load i32, ptr %9, align 4, !tbaa !15
  %40 = icmp ne i32 %39, 0
  br i1 %40, label %41, label %43

41:                                               ; preds = %28
  %42 = load i32, ptr %9, align 4, !tbaa !15
  store i32 %42, ptr %3, align 4
  store i32 1, ptr %10, align 4
  br label %51

43:                                               ; preds = %28
  %44 = load ptr, ptr %6, align 8, !tbaa !28
  %45 = getelementptr inbounds nuw %struct.DER_ENC, ptr %44, i32 0, i32 1
  %46 = load i32, ptr %45, align 8, !tbaa !81
  %47 = load ptr, ptr %7, align 8, !tbaa !28
  %48 = getelementptr inbounds nuw %struct.DER_ENC, ptr %47, i32 0, i32 1
  %49 = load i32, ptr %48, align 8, !tbaa !81
  %50 = sub nsw i32 %46, %49
  store i32 %50, ptr %3, align 4
  store i32 1, ptr %10, align 4
  br label %51

51:                                               ; preds = %43, %41
  call void @llvm.lifetime.end.p0(i64 4, ptr %9) #7
  call void @llvm.lifetime.end.p0(i64 4, ptr %8) #7
  call void @llvm.lifetime.end.p0(i64 8, ptr %7) #7
  call void @llvm.lifetime.end.p0(i64 8, ptr %6) #7
  %52 = load i32, ptr %3, align 4
  ret i32 %52
}